; Function Attrs: nounwind uwtable
define ptr @l_Lean_Meta_reduce_visit___lambda__2___boxed(ptr noundef %0, ptr noundef %1, ptr noundef %2, ptr noundef %3, ptr noundef %4, ptr noundef %5, ptr noundef %6, ptr noundef %7, ptr noundef %8, ptr noundef %9, ptr noundef %10) #1 {
  %12 = ptrtoint ptr %0 to i64
  %13 = lshr i64 %12, 1
  %14 = trunc i64 %13 to i8
  %15 = and i64 %12, 1
  %.not = icmp eq i64 %15, 0
  br i1 %.not, label %16, label %lean_dec.exit20

16:                                               ; preds = %11
  %17 = load i32, ptr %0, align 4, !tbaa !8
  %18 = icmp sgt i32 %17, 1
  br i1 %18, label %19, label %21, !prof !11

19:                                               ; preds = %16
  %20 = add nsw i32 %17, -1
  store i32 %20, ptr %0, align 4, !tbaa !8
  br label %lean_dec.exit20

21:                                               ; preds = %16
  %.not.i = icmp eq i32 %17, 0
  br i1 %.not.i, label %lean_dec.exit20, label %22

22:                                               ; preds = %21
  tail call void @lean_dec_ref_cold(ptr noundef nonnull %0) #4
  br label %lean_dec.exit20

lean_dec.exit20:                                  ; preds = %22, %21, %19, %11
  %23 = ptrtoint ptr %1 to i64
  %24 = lshr i64 %23, 1
  %25 = trunc i64 %24 to i8
  %26 = and i64 %23, 1
  %.not27 = icmp eq i64 %26, 0
  br i1 %.not27, label %27, label %lean_dec.exit19

27:                                               ; preds = %lean_dec.exit20
  %28 = load i32, ptr %1, align 4, !tbaa !8
  %29 = icmp sgt i32 %28, 1
  br i1 %29, label %30, label %32, !prof !11

30:                                               ; preds = %27
  %31 = add nsw i32 %28, -1
  store i32 %31, ptr %1, align 4, !tbaa !8
  br label %lean_dec.exit19

32:                                               ; preds = %27
  %.not.i21 = icmp eq i32 %28, 0
  br i1 %.not.i21, label %lean_dec.exit19, label %33

33:                                               ; preds = %32
  tail call void @lean_dec_ref_cold(ptr noundef nonnull %1) #4
  br label %lean_dec.exit19

lean_dec.exit19:                                  ; preds = %33, %32, %30, %lean_dec.exit20
  %34 = ptrtoint ptr %2 to i64
  %35 = lshr i64 %34, 1
  %36 = trunc i64 %35 to i8
  %37 = and i64 %34, 1
  %.not28 = icmp eq i64 %37, 0
  br i1 %.not28, label %38, label %lean_dec.exit18

38:                                               ; preds = %lean_dec.exit19
  %39 = load i32, ptr %2, align 4, !tbaa !8
  %40 = icmp sgt i32 %39, 1
  br i1 %40, label %41, label %43, !prof !11

41:                                               ; preds = %38
  %42 = add nsw i32 %39, -1
  store i32 %42, ptr %2, align 4, !tbaa !8
  br label %lean_dec.exit18

43:                                               ; preds = %38
  %.not.i23 = icmp eq i32 %39, 0
  br i1 %.not.i23, label %lean_dec.exit18, label %44

44:                                               ; preds = %43
  tail call void @lean_dec_ref_cold(ptr noundef nonnull %2) #4
  br label %lean_dec.exit18

lean_dec.exit18:                                  ; preds = %44, %43, %41, %lean_dec.exit19
  %45 = tail call ptr @l_Lean_Meta_reduce_visit___lambda__2(i8 noundef zeroext %14, i8 noundef zeroext %25, i8 noundef zeroext %36, ptr noundef %3, ptr noundef %4, ptr noundef %5, ptr noundef %6, ptr noundef %7, ptr noundef %8, ptr noundef %9, ptr noundef %10)
  %46 = ptrtoint ptr %3 to i64
  %47 = and i64 %46, 1
  %.not29 = icmp eq i64 %47, 0
  br i1 %.not29, label %48, label %lean_dec.exit

48:                                               ; preds = %lean_dec.exit18
  %49 = load i32, ptr %3, align 4, !tbaa !8
  %50 = icmp sgt i32 %49, 1
  br i1 %50, label %51, label %53, !prof !11

51:                                               ; preds = %48
  %52 = add nsw i32 %49, -1
  store i32 %52, ptr %3, align 4, !tbaa !8
  br label %lean_dec.exit

53:                                               ; preds = %48
  %.not.i25 = icmp eq i32 %49, 0
  br i1 %.not.i25, label %lean_dec.exit, label %54

54:                                               ; preds = %53
  tail call void @lean_dec_ref_cold(ptr noundef nonnull %3) #4
  br label %lean_dec.exit

lean_dec.exit:                                    ; preds = %54, %53, %51, %lean_dec.exit18
  ret ptr %45
}